target datalayout = "e-m:e-p270:32:32-p271:32:32-p272:64:64-i64:64-i128:128-f80:128-n8:16:32:64-S128"
target triple = "x86_64-pc-linux-gnu"

%struct.AVTXContext = type { i32, i32, ptr, ptr, ptr, ptr, [4 x ptr], i32, [4 x ptr], ptr, i32, i64, i32, float, double, ptr }

; Function Attrs: cold nounwind optsize uwtable
define internal i32 @ff_tx_dct_init_double_c(ptr noundef %0, ptr noundef %1, i64 noundef %2, ptr noundef %3, i32 noundef %4, i32 noundef %5, ptr noundef %6) #0 {
  %8 = alloca i32, align 4
  %9 = alloca ptr, align 8
  %10 = alloca ptr, align 8
  %11 = alloca i64, align 8
  %12 = alloca ptr, align 8
  %13 = alloca i32, align 4
  %14 = alloca i32, align 4
  %15 = alloca ptr, align 8
  %16 = alloca i32, align 4
  %17 = alloca double, align 8
  %18 = alloca ptr, align 8
  %19 = alloca double, align 8
  %20 = alloca i32, align 4
  %21 = alloca i32, align 4
  %22 = alloca i32, align 4
  %23 = alloca i32, align 4
  store ptr %0, ptr %9, align 8, !tbaa !17
  store ptr %1, ptr %10, align 8, !tbaa !60
  store i64 %2, ptr %11, align 8, !tbaa !30
  store ptr %3, ptr %12, align 8, !tbaa !61
  store i32 %4, ptr %13, align 4, !tbaa !4
  store i32 %5, ptr %14, align 4, !tbaa !4
  store ptr %6, ptr %15, align 8, !tbaa !8
  call void @llvm.lifetime.start.p0(i64 4, ptr %16) #10
  call void @llvm.lifetime.start.p0(i64 8, ptr %17) #10
  call void @llvm.lifetime.start.p0(i64 8, ptr %18) #10
  call void @llvm.lifetime.start.p0(i64 8, ptr %19) #10
  %24 = load ptr, ptr %15, align 8, !tbaa !8
  %25 = load double, ptr %24, align 8, !tbaa !29
  store double %25, ptr %19, align 8, !tbaa !29
  %26 = load i32, ptr %14, align 4, !tbaa !4
  %27 = icmp ne i32 %26, 0
  br i1 %27, label %28, label %37

28:                                               ; preds = %7
  %29 = load i32, ptr %13, align 4, !tbaa !4
  %30 = mul nsw i32 %29, 2
  store i32 %30, ptr %13, align 4, !tbaa !4
  %31 = load ptr, ptr %9, align 8, !tbaa !17
  %32 = getelementptr inbounds nuw %struct.AVTXContext, ptr %31, i32 0, i32 0
  %33 = load i32, ptr %32, align 8, !tbaa !21
  %34 = mul nsw i32 %33, 2
  store i32 %34, ptr %32, align 8, !tbaa !21
  %35 = load double, ptr %19, align 8, !tbaa !29
  %36 = fmul nsz double %35, 5.000000e-01
  store double %36, ptr %19, align 8, !tbaa !29
  br label %37

37:                                               ; preds = %28, %7
  %38 = load ptr, ptr %9, align 8, !tbaa !17
  %39 = load i64, ptr %11, align 8, !tbaa !30
  %40 = load i32, ptr %13, align 4, !tbaa !4
  %41 = load i32, ptr %14, align 4, !tbaa !4
  %42 = call i32 @ff_tx_init_subtx(ptr noundef %38, i32 noundef 7, i64 noundef %39, ptr noundef null, i32 noundef %40, i32 noundef %41, ptr noundef %19)
  store i32 %42, ptr %16, align 4, !tbaa !4
  %43 = icmp ne i32 %42, 0
  br i1 %43, label %44, label %46

44:                                               ; preds = %37
  %45 = load i32, ptr %16, align 4, !tbaa !4
  store i32 %45, ptr %8, align 4
  store i32 1, ptr %20, align 4
  br label %150

46:                                               ; preds = %37
  %47 = load i32, ptr %13, align 4, !tbaa !4
  %48 = sdiv i32 %47, 2
  %49 = mul nsw i32 %48, 3
  %50 = sext i32 %49 to i64
  %51 = mul i64 %50, 8
  %52 = call noalias ptr @av_malloc(i64 noundef %51)
  %53 = load ptr, ptr %9, align 8, !tbaa !17
  %54 = getelementptr inbounds nuw %struct.AVTXContext, ptr %53, i32 0, i32 3
  store ptr %52, ptr %54, align 8, !tbaa !31
  %55 = load ptr, ptr %9, align 8, !tbaa !17
  %56 = getelementptr inbounds nuw %struct.AVTXContext, ptr %55, i32 0, i32 3
  %57 = load ptr, ptr %56, align 8, !tbaa !31
  %58 = icmp ne ptr %57, null
  br i1 %58, label %60, label %59

59:                                               ; preds = %46
  store i32 -12, ptr %8, align 4
  store i32 1, ptr %20, align 4
  br label %150

60:                                               ; preds = %46
  %61 = load ptr, ptr %9, align 8, !tbaa !17
  %62 = getelementptr inbounds nuw %struct.AVTXContext, ptr %61, i32 0, i32 3
  %63 = load ptr, ptr %62, align 8, !tbaa !31
  store ptr %63, ptr %18, align 8, !tbaa !38
  %64 = load i32, ptr %13, align 4, !tbaa !4
  %65 = mul nsw i32 %64, 2
  %66 = sitofp i32 %65 to double
  %67 = fdiv nsz double 0x400921FB54442D18, %66
  store double %67, ptr %17, align 8, !tbaa !29
  call void @llvm.lifetime.start.p0(i64 4, ptr %21) #10
  store i32 0, ptr %21, align 4, !tbaa !4
  br label %68

68:                                               ; preds = %90, %60
  %69 = load i32, ptr %21, align 4, !tbaa !4
  %70 = load i32, ptr %13, align 4, !tbaa !4
  %71 = icmp slt i32 %69, %70
  br i1 %71, label %73, label %72

72:                                               ; preds = %68
  store i32 2, ptr %20, align 4
  call void @llvm.lifetime.end.p0(i64 4, ptr %21) #10
  br label %93

73:                                               ; preds = %68
  %74 = load i32, ptr %21, align 4, !tbaa !4
  %75 = sitofp i32 %74 to double
  %76 = load double, ptr %17, align 8, !tbaa !29
  %77 = fmul nsz double %75, %76
  %78 = call nsz double @llvm.cos.f64(double %77)
  %79 = load i32, ptr %14, align 4, !tbaa !4
  %80 = icmp ne i32 %79, 0
  %81 = xor i1 %80, true
  %82 = zext i1 %81 to i32
  %83 = add nsw i32 %82, 1
  %84 = sitofp i32 %83 to double
  %85 = fmul nsz double %78, %84
  %86 = load ptr, ptr %18, align 8, !tbaa !38
  %87 = load i32, ptr %21, align 4, !tbaa !4
  %88 = sext i32 %87 to i64
  %89 = getelementptr inbounds double, ptr %86, i64 %88
  store double %85, ptr %89, align 8, !tbaa !29
  br label %90

90:                                               ; preds = %73
  %91 = load i32, ptr %21, align 4, !tbaa !4
  %92 = add nsw i32 %91, 1
  store i32 %92, ptr %21, align 4, !tbaa !4
  br label %68, !llvm.loop !161

93:                                               ; preds = %72
  %94 = load i32, ptr %14, align 4, !tbaa !4
  %95 = icmp ne i32 %94, 0
  br i1 %95, label %96, label %122

96:                                               ; preds = %93
  call void @llvm.lifetime.start.p0(i64 4, ptr %22) #10
  store i32 0, ptr %22, align 4, !tbaa !4
  br label %97

97:                                               ; preds = %118, %96
  %98 = load i32, ptr %22, align 4, !tbaa !4
  %99 = load i32, ptr %13, align 4, !tbaa !4
  %100 = sdiv i32 %99, 2
  %101 = icmp slt i32 %98, %100
  br i1 %101, label %103, label %102

102:                                              ; preds = %97
  store i32 5, ptr %20, align 4
  call void @llvm.lifetime.end.p0(i64 4, ptr %22) #10
  br label %121

103:                                              ; preds = %97
  %104 = load i32, ptr %22, align 4, !tbaa !4
  %105 = mul nsw i32 2, %104
  %106 = add nsw i32 %105, 1
  %107 = sitofp i32 %106 to double
  %108 = load double, ptr %17, align 8, !tbaa !29
  %109 = fmul nsz double %107, %108
  %110 = call nsz double @llvm.sin.f64(double %109)
  %111 = fdiv nsz double 5.000000e-01, %110
  %112 = load ptr, ptr %18, align 8, !tbaa !38
  %113 = load i32, ptr %13, align 4, !tbaa !4
  %114 = load i32, ptr %22, align 4, !tbaa !4
  %115 = add nsw i32 %113, %114
  %116 = sext i32 %115 to i64
  %117 = getelementptr inbounds double, ptr %112, i64 %116
  store double %111, ptr %117, align 8, !tbaa !29
  br label %118

118:                                              ; preds = %103
  %119 = load i32, ptr %22, align 4, !tbaa !4
  %120 = add nsw i32 %119, 1
  store i32 %120, ptr %22, align 4, !tbaa !4
  br label %97, !llvm.loop !162

121:                                              ; preds = %102
  br label %149

122:                                              ; preds = %93
  call void @llvm.lifetime.start.p0(i64 4, ptr %23) #10
  store i32 0, ptr %23, align 4, !tbaa !4
  br label %123

123:                                              ; preds = %145, %122
  %124 = load i32, ptr %23, align 4, !tbaa !4
  %125 = load i32, ptr %13, align 4, !tbaa !4
  %126 = sdiv i32 %125, 2
  %127 = icmp slt i32 %124, %126
  br i1 %127, label %129, label %128

128:                                              ; preds = %123
  store i32 8, ptr %20, align 4
  call void @llvm.lifetime.end.p0(i64 4, ptr %23) #10
  br label %148

129:                                              ; preds = %123
  %130 = load i32, ptr %13, align 4, !tbaa !4
  %131 = load i32, ptr %23, align 4, !tbaa !4
  %132 = mul nsw i32 2, %131
  %133 = sub nsw i32 %130, %132
  %134 = sub nsw i32 %133, 1
  %135 = sitofp i32 %134 to double
  %136 = load double, ptr %17, align 8, !tbaa !29
  %137 = fmul nsz double %135, %136
  %138 = call nsz double @llvm.cos.f64(double %137)
  %139 = load ptr, ptr %18, align 8, !tbaa !38
  %140 = load i32, ptr %13, align 4, !tbaa !4
  %141 = load i32, ptr %23, align 4, !tbaa !4
  %142 = add nsw i32 %140, %141
  %143 = sext i32 %142 to i64
  %144 = getelementptr inbounds double, ptr %139, i64 %143
  store double %138, ptr %144, align 8, !tbaa !29
  br label %145

145:                                              ; preds = %129
  %146 = load i32, ptr %23, align 4, !tbaa !4
  %147 = add nsw i32 %146, 1
  store i32 %147, ptr %23, align 4, !tbaa !4
  br label %123, !llvm.loop !163

148:                                              ; preds = %128
  br label %149

149:                                              ; preds = %148, %121
  store i32 0, ptr %8, align 4
  store i32 1, ptr %20, align 4
  br label %150

150:                                              ; preds = %149, %59, %44
  call void @llvm.lifetime.end.p0(i64 8, ptr %19) #10
  call void @llvm.lifetime.end.p0(i64 8, ptr %18) #10
  call void @llvm.lifetime.end.p0(i64 8, ptr %17) #10
  call void @llvm.lifetime.end.p0(i64 4, ptr %16) #10
  %151 = load i32, ptr %8, align 4
  ret i32 %151
}